target datalayout = "e-m:e-p270:32:32-p271:32:32-p272:64:64-i64:64-i128:128-f80:128-n8:16:32:64-S128"
target triple = "x86_64-pc-linux-gnu"

%struct.DdManager = type { %struct.DdNode, ptr, ptr, ptr, ptr, ptr, ptr, ptr, i32, i32, double, double, double, i32, i32, i32, i32, i32, i32, ptr, ptr, %struct.DdSubtable, i32, i32, i32, i32, i32, i32, i32, double, i32, i32, i32, ptr, i64, double, i32, ptr, ptr, ptr, ptr, ptr, ptr, ptr, i32, ptr, ptr, ptr, ptr, ptr, ptr, i32, i32, i32, double, i32, i32, i32, i32, double, double, i32, i32, i32, i32, i32, i32, i32, i32, i32, ptr, ptr, i32, i32, i32, i32, i32, i32, ptr, ptr, ptr, ptr, ptr, ptr, ptr, ptr, i32, i64, i64, i64, i32, i64, i64, double, double, double, double, double, double, i32, ptr, ptr, i64 }
%struct.DdNode = type { i32, i32, ptr, %union.anon, i64 }
%union.anon = type { %struct.DdChildren }
%struct.DdChildren = type { ptr, ptr }
%struct.DdSubtable = type { ptr, i32, i32, i32, i32, i32, i32, i32, i32, i32, i32, i32 }
%struct.Bbr_ImagePart_t_ = type { ptr, ptr, i32, i16, i16 }
%struct.Bbr_ImageNode_t_ = type { ptr, ptr, ptr, ptr, ptr, ptr }

; Function Attrs: nounwind uwtable
define internal ptr @Bbr_CombineTwoNodes(ptr noundef %0, ptr noundef %1, ptr noundef %2, ptr noundef %3) #0 {
  %5 = alloca ptr, align 8
  %6 = alloca ptr, align 8
  %7 = alloca ptr, align 8
  %8 = alloca ptr, align 8
  %9 = alloca ptr, align 8
  %10 = alloca ptr, align 8
  store ptr %0, ptr %5, align 8, !tbaa !3
  store ptr %1, ptr %6, align 8, !tbaa !8
  store ptr %2, ptr %7, align 8, !tbaa !35
  store ptr %3, ptr %8, align 8, !tbaa !35
  call void @llvm.lifetime.start.p0(i64 8, ptr %9) #6
  call void @llvm.lifetime.start.p0(i64 8, ptr %10) #6
  %11 = call noalias ptr @malloc(i64 noundef 24) #7
  store ptr %11, ptr %10, align 8, !tbaa !56
  %12 = load ptr, ptr %10, align 8, !tbaa !56
  call void @llvm.memset.p0.i64(ptr align 8 %12, i8 0, i64 24, i1 false)
  %13 = load ptr, ptr %5, align 8, !tbaa !3
  %14 = load ptr, ptr %7, align 8, !tbaa !35
  %15 = getelementptr inbounds nuw %struct.Bbr_ImageNode_t_, ptr %14, i32 0, i32 5
  %16 = load ptr, ptr %15, align 8, !tbaa !79
  %17 = getelementptr inbounds nuw %struct.Bbr_ImagePart_t_, ptr %16, i32 0, i32 0
  %18 = load ptr, ptr %17, align 8, !tbaa !58
  %19 = load ptr, ptr %8, align 8, !tbaa !35
  %20 = getelementptr inbounds nuw %struct.Bbr_ImageNode_t_, ptr %19, i32 0, i32 5
  %21 = load ptr, ptr %20, align 8, !tbaa !79
  %22 = getelementptr inbounds nuw %struct.Bbr_ImagePart_t_, ptr %21, i32 0, i32 0
  %23 = load ptr, ptr %22, align 8, !tbaa !58
  %24 = load ptr, ptr %6, align 8, !tbaa !8
  %25 = call ptr @Cudd_bddAndAbstract(ptr noundef %13, ptr noundef %18, ptr noundef %23, ptr noundef %24)
  %26 = load ptr, ptr %10, align 8, !tbaa !56
  %27 = getelementptr inbounds nuw %struct.Bbr_ImagePart_t_, ptr %26, i32 0, i32 0
  store ptr %25, ptr %27, align 8, !tbaa !58
  %28 = load ptr, ptr %10, align 8, !tbaa !56
  %29 = getelementptr inbounds nuw %struct.Bbr_ImagePart_t_, ptr %28, i32 0, i32 0
  %30 = load ptr, ptr %29, align 8, !tbaa !58
  call void @Cudd_Ref(ptr noundef %30)
  %31 = load ptr, ptr %5, align 8, !tbaa !3
  %32 = load ptr, ptr %7, align 8, !tbaa !35
  %33 = getelementptr inbounds nuw %struct.Bbr_ImageNode_t_, ptr %32, i32 0, i32 5
  %34 = load ptr, ptr %33, align 8, !tbaa !79
  %35 = getelementptr inbounds nuw %struct.Bbr_ImagePart_t_, ptr %34, i32 0, i32 1
  %36 = load ptr, ptr %35, align 8, !tbaa !61
  %37 = load ptr, ptr %8, align 8, !tbaa !35
  %38 = getelementptr inbounds nuw %struct.Bbr_ImageNode_t_, ptr %37, i32 0, i32 5
  %39 = load ptr, ptr %38, align 8, !tbaa !79
  %40 = getelementptr inbounds nuw %struct.Bbr_ImagePart_t_, ptr %39, i32 0, i32 1
  %41 = load ptr, ptr %40, align 8, !tbaa !61
  %42 = load ptr, ptr %6, align 8, !tbaa !8
  %43 = call ptr @Cudd_bddAndAbstract(ptr noundef %31, ptr noundef %36, ptr noundef %41, ptr noundef %42)
  %44 = load ptr, ptr %10, align 8, !tbaa !56
  %45 = getelementptr inbounds nuw %struct.Bbr_ImagePart_t_, ptr %44, i32 0, i32 1
  store ptr %43, ptr %45, align 8, !tbaa !61
  %46 = load ptr, ptr %10, align 8, !tbaa !56
  %47 = getelementptr inbounds nuw %struct.Bbr_ImagePart_t_, ptr %46, i32 0, i32 1
  %48 = load ptr, ptr %47, align 8, !tbaa !61
  call void @Cudd_Ref(ptr noundef %48)
  %49 = load ptr, ptr %5, align 8, !tbaa !3
  %50 = load ptr, ptr %10, align 8, !tbaa !56
  %51 = getelementptr inbounds nuw %struct.Bbr_ImagePart_t_, ptr %50, i32 0, i32 1
  %52 = load ptr, ptr %51, align 8, !tbaa !61
  %53 = call i32 @Cudd_SupportSize(ptr noundef %49, ptr noundef %52)
  %54 = trunc i32 %53 to i16
  %55 = load ptr, ptr %10, align 8, !tbaa !56
  %56 = getelementptr inbounds nuw %struct.Bbr_ImagePart_t_, ptr %55, i32 0, i32 3
  store i16 %54, ptr %56, align 4, !tbaa !62
  %57 = load ptr, ptr %10, align 8, !tbaa !56
  %58 = getelementptr inbounds nuw %struct.Bbr_ImagePart_t_, ptr %57, i32 0, i32 0
  %59 = load ptr, ptr %58, align 8, !tbaa !58
  %60 = call i32 @Cudd_DagSize(ptr noundef %59)
  %61 = load ptr, ptr %10, align 8, !tbaa !56
  %62 = getelementptr inbounds nuw %struct.Bbr_ImagePart_t_, ptr %61, i32 0, i32 2
  store i32 %60, ptr %62, align 8, !tbaa !63
  %63 = load ptr, ptr %10, align 8, !tbaa !56
  %64 = getelementptr inbounds nuw %struct.Bbr_ImagePart_t_, ptr %63, i32 0, i32 4
  store i16 -1, ptr %64, align 2, !tbaa !64
  %65 = call noalias ptr @malloc(i64 noundef 48) #7
  store ptr %65, ptr %9, align 8, !tbaa !35
  %66 = load ptr, ptr %9, align 8, !tbaa !35
  call void @llvm.memset.p0.i64(ptr align 8 %66, i8 0, i64 48, i1 false)
  %67 = load ptr, ptr %5, align 8, !tbaa !3
  %68 = load ptr, ptr %9, align 8, !tbaa !35
  %69 = getelementptr inbounds nuw %struct.Bbr_ImageNode_t_, ptr %68, i32 0, i32 0
  store ptr %67, ptr %69, align 8, !tbaa !77
  %70 = load ptr, ptr %10, align 8, !tbaa !56
  %71 = load ptr, ptr %9, align 8, !tbaa !35
  %72 = getelementptr inbounds nuw %struct.Bbr_ImageNode_t_, ptr %71, i32 0, i32 5
  store ptr %70, ptr %72, align 8, !tbaa !79
  %73 = load ptr, ptr %7, align 8, !tbaa !35
  %74 = load ptr, ptr %9, align 8, !tbaa !35
  %75 = getelementptr inbounds nuw %struct.Bbr_ImageNode_t_, ptr %74, i32 0, i32 3
  store ptr %73, ptr %75, align 8, !tbaa !90
  %76 = load ptr, ptr %8, align 8, !tbaa !35
  %77 = load ptr, ptr %9, align 8, !tbaa !35
  %78 = getelementptr inbounds nuw %struct.Bbr_ImageNode_t_, ptr %77, i32 0, i32 4
  store ptr %76, ptr %78, align 8, !tbaa !91
  %79 = load ptr, ptr %5, align 8, !tbaa !3
  %80 = load ptr, ptr %7, align 8, !tbaa !35
  %81 = getelementptr inbounds nuw %struct.Bbr_ImageNode_t_, ptr %80, i32 0, i32 2
  %82 = load ptr, ptr %81, align 8, !tbaa !83
  %83 = load ptr, ptr %8, align 8, !tbaa !35
  %84 = getelementptr inbounds nuw %struct.Bbr_ImageNode_t_, ptr %83, i32 0, i32 2
  %85 = load ptr, ptr %84, align 8, !tbaa !83
  %86 = load ptr, ptr %6, align 8, !tbaa !8
  %87 = call ptr @Cudd_bddAndAbstract(ptr noundef %79, ptr noundef %82, ptr noundef %85, ptr noundef %86)
  %88 = load ptr, ptr %9, align 8, !tbaa !35
  %89 = getelementptr inbounds nuw %struct.Bbr_ImageNode_t_, ptr %88, i32 0, i32 2
  store ptr %87, ptr %89, align 8, !tbaa !83
  %90 = load ptr, ptr %9, align 8, !tbaa !35
  %91 = getelementptr inbounds nuw %struct.Bbr_ImageNode_t_, ptr %90, i32 0, i32 2
  %92 = load ptr, ptr %91, align 8, !tbaa !83
  call void @Cudd_Ref(ptr noundef %92)
  %93 = load ptr, ptr %6, align 8, !tbaa !8
  %94 = load ptr, ptr %5, align 8, !tbaa !3
  %95 = getelementptr inbounds nuw %struct.DdManager, ptr %94, i32 0, i32 1
  %96 = load ptr, ptr %95, align 8, !tbaa !67
  %97 = icmp ne ptr %93, %96
  br i1 %97, label %98, label %103

98:                                               ; preds = %4
  %99 = load ptr, ptr %6, align 8, !tbaa !8
  %100 = load ptr, ptr %9, align 8, !tbaa !35
  %101 = getelementptr inbounds nuw %struct.Bbr_ImageNode_t_, ptr %100, i32 0, i32 1
  store ptr %99, ptr %101, align 8, !tbaa !81
  %102 = load ptr, ptr %6, align 8, !tbaa !8
  call void @Cudd_Ref(ptr noundef %102)
  br label %103

103:                                              ; preds = %98, %4
  %104 = load ptr, ptr %9, align 8, !tbaa !35
  call void @llvm.lifetime.end.p0(i64 8, ptr %10) #6
  call void @llvm.lifetime.end.p0(i64 8, ptr %9) #6
  ret ptr %104
}